target datalayout = "e-m:e-p270:32:32-p271:32:32-p272:64:64-i64:64-i128:128-f80:128-n8:16:32:64-S128"
target triple = "x86_64-pc-linux-gnu"

%struct.IspellDict = type { i32, i32, ptr, ptr, ptr, ptr, ptr, i32, i32, i8, ptr, i8, i32, ptr, i32, i32, ptr, ptr, i32, i32, ptr, i64 }
%struct.CompoundAffixFlag = type { %union.anon.1, i32, i32 }
%union.anon.1 = type { ptr }

; Function Attrs: inlinehint nounwind uwtable
define available_externally ptr @bsearch(ptr noundef nonnull %0, ptr noundef nonnull %1, i64 noundef %2, i64 noundef %3, ptr noundef nonnull %4) #8 {
  %6 = alloca ptr, align 8
  %7 = alloca ptr, align 8
  %8 = alloca ptr, align 8
  %9 = alloca i64, align 8
  %10 = alloca i64, align 8
  %11 = alloca ptr, align 8
  %12 = alloca i64, align 8
  %13 = alloca i64, align 8
  %14 = alloca i64, align 8
  %15 = alloca ptr, align 8
  %16 = alloca i32, align 4
  %17 = alloca i32, align 4
  store ptr %0, ptr %7, align 8
  store ptr %1, ptr %8, align 8
  store i64 %2, ptr %9, align 8
  store i64 %3, ptr %10, align 8
  store ptr %4, ptr %11, align 8
  call void @llvm.lifetime.start.p0(i64 8, ptr %12) #11
  call void @llvm.lifetime.start.p0(i64 8, ptr %13) #11
  call void @llvm.lifetime.start.p0(i64 8, ptr %14) #11
  call void @llvm.lifetime.start.p0(i64 8, ptr %15) #11
  call void @llvm.lifetime.start.p0(i64 4, ptr %16) #11
  store i64 0, ptr %12, align 8
  %18 = load i64, ptr %9, align 8
  store i64 %18, ptr %13, align 8
  br label %19

19:                                               ; preds = %50, %5
  %20 = load i64, ptr %12, align 8
  %21 = load i64, ptr %13, align 8
  %22 = icmp ult i64 %20, %21
  br i1 %22, label %23, label %51

23:                                               ; preds = %19
  %24 = load i64, ptr %12, align 8
  %25 = load i64, ptr %13, align 8
  %26 = add i64 %24, %25
  %27 = udiv i64 %26, 2
  store i64 %27, ptr %14, align 8
  %28 = load ptr, ptr %8, align 8
  %29 = load i64, ptr %14, align 8
  %30 = load i64, ptr %10, align 8
  %31 = mul i64 %29, %30
  %32 = getelementptr inbounds nuw i8, ptr %28, i64 %31
  store ptr %32, ptr %15, align 8
  %33 = load ptr, ptr %11, align 8
  %34 = load ptr, ptr %7, align 8
  %35 = load ptr, ptr %15, align 8
  %36 = call i32 %33(ptr noundef %34, ptr noundef %35)
  store i32 %36, ptr %16, align 4
  %37 = load i32, ptr %16, align 4
  %38 = icmp slt i32 %37, 0
  br i1 %38, label %39, label %41

39:                                               ; preds = %23
  %40 = load i64, ptr %14, align 8
  store i64 %40, ptr %13, align 8
  br label %50

41:                                               ; preds = %23
  %42 = load i32, ptr %16, align 4
  %43 = icmp sgt i32 %42, 0
  br i1 %43, label %44, label %47

44:                                               ; preds = %41
  %45 = load i64, ptr %14, align 8
  %46 = add i64 %45, 1
  store i64 %46, ptr %12, align 8
  br label %49

47:                                               ; preds = %41
  %48 = load ptr, ptr %15, align 8
  store ptr %48, ptr %6, align 8
  store i32 1, ptr %17, align 4
  br label %52

49:                                               ; preds = %44
  br label %50

50:                                               ; preds = %49, %39
  br label %19, !llvm.loop !56

51:                                               ; preds = %19
  store ptr null, ptr %6, align 8
  store i32 1, ptr %17, align 4
  br label %52

52:                                               ; preds = %51, %47
  call void @llvm.lifetime.end.p0(i64 4, ptr %16) #11
  call void @llvm.lifetime.end.p0(i64 8, ptr %15) #11
  call void @llvm.lifetime.end.p0(i64 8, ptr %14) #11
  call void @llvm.lifetime.end.p0(i64 8, ptr %13) #11
  call void @llvm.lifetime.end.p0(i64 8, ptr %12) #11
  %53 = load ptr, ptr %6, align 8
  ret ptr %53
}

; Function Attrs: nounwind uwtable
define internal i32 @getCompoundAffixFlagValue(ptr noundef %0, ptr noundef %1) #0 {
  %3 = alloca i32, align 4
  %4 = alloca ptr, align 8
  %5 = alloca ptr, align 8
  %6 = alloca i32, align 4
  %7 = alloca ptr, align 8
  %8 = alloca %struct.CompoundAffixFlag, align 8
  %9 = alloca [8192 x i8], align 16
  %10 = alloca ptr, align 8
  %11 = alloca i32, align 4
  store ptr %0, ptr %4, align 8
  store ptr %1, ptr %5, align 8
  call void @llvm.lifetime.start.p0(i64 4, ptr %6) #11
  store i32 0, ptr %6, align 4
  call void @llvm.lifetime.start.p0(i64 8, ptr %7) #11
  call void @llvm.lifetime.start.p0(i64 16, ptr %8) #11
  call void @llvm.lifetime.start.p0(i64 8192, ptr %9) #11
  call void @llvm.lifetime.start.p0(i64 8, ptr %10) #11
  %12 = load ptr, ptr %4, align 8
  %13 = getelementptr inbounds nuw %struct.IspellDict, ptr %12, i32 0, i32 14
  %14 = load i32, ptr %13, align 8
  %15 = icmp eq i32 %14, 0
  br i1 %15, label %16, label %17

16:                                               ; preds = %2
  store i32 0, ptr %3, align 4
  store i32 1, ptr %11, align 4
  br label %47

17:                                               ; preds = %2
  %18 = load ptr, ptr %5, align 8
  store ptr %18, ptr %10, align 8
  br label %19

19:                                               ; preds = %44, %17
  %20 = load ptr, ptr %10, align 8
  %21 = load i8, ptr %20, align 1
  %22 = icmp ne i8 %21, 0
  br i1 %22, label %23, label %45

23:                                               ; preds = %19
  %24 = load ptr, ptr %4, align 8
  %25 = getelementptr inbounds [8192 x i8], ptr %9, i64 0, i64 0
  call void @getNextFlagFromString(ptr noundef %24, ptr noundef %10, ptr noundef %25)
  %26 = load ptr, ptr %4, align 8
  %27 = getelementptr inbounds [8192 x i8], ptr %9, i64 0, i64 0
  call void @setCompoundAffixFlagValue(ptr noundef %26, ptr noundef %8, ptr noundef %27, i32 noundef 0)
  %28 = load ptr, ptr %4, align 8
  %29 = getelementptr inbounds nuw %struct.IspellDict, ptr %28, i32 0, i32 13
  %30 = load ptr, ptr %29, align 8
  %31 = load ptr, ptr %4, align 8
  %32 = getelementptr inbounds nuw %struct.IspellDict, ptr %31, i32 0, i32 14
  %33 = load i32, ptr %32, align 8
  %34 = sext i32 %33 to i64
  %35 = call ptr @bsearch(ptr noundef %8, ptr noundef %30, i64 noundef %34, i64 noundef 16, ptr noundef @cmpcmdflag)
  store ptr %35, ptr %7, align 8
  %36 = load ptr, ptr %7, align 8
  %37 = icmp ne ptr %36, null
  br i1 %37, label %38, label %44

38:                                               ; preds = %23
  %39 = load ptr, ptr %7, align 8
  %40 = getelementptr inbounds nuw %struct.CompoundAffixFlag, ptr %39, i32 0, i32 2
  %41 = load i32, ptr %40, align 4
  %42 = load i32, ptr %6, align 4
  %43 = or i32 %42, %41
  store i32 %43, ptr %6, align 4
  br label %44

44:                                               ; preds = %38, %23
  br label %19, !llvm.loop !52

45:                                               ; preds = %19
  %46 = load i32, ptr %6, align 4
  store i32 %46, ptr %3, align 4
  store i32 1, ptr %11, align 4
  br label %47

47:                                               ; preds = %45, %16
  call void @llvm.lifetime.end.p0(i64 8, ptr %10) #11
  call void @llvm.lifetime.end.p0(i64 8192, ptr %9) #11
  call void @llvm.lifetime.end.p0(i64 16, ptr %8) #11
  call void @llvm.lifetime.end.p0(i64 8, ptr %7) #11
  call void @llvm.lifetime.end.p0(i64 4, ptr %6) #11
  %48 = load i32, ptr %3, align 4
  ret i32 %48
}