; Function Attrs: nounwind uwtable
define internal fastcc i32 @getCompoundAffixFlagValue(ptr noundef captures(none) %0, ptr noundef %1) unnamed_addr #0 {
  %3 = alloca %struct.CompoundAffixFlag, align 8
  %4 = alloca [8192 x i8], align 16
  %5 = alloca ptr, align 8
  call void @llvm.lifetime.start.p0(i64 16, ptr nonnull %3) #14
  call void @llvm.lifetime.start.p0(i64 8192, ptr nonnull %4) #14
  call void @llvm.lifetime.start.p0(i64 8, ptr nonnull %5) #14
  %6 = getelementptr inbounds nuw i8, ptr %0, i64 88
  %7 = load i32, ptr %6, align 8
  %8 = icmp eq i32 %7, 0
  br i1 %8, label %.loopexit, label %9

9:                                                ; preds = %2
  store ptr %1, ptr %5, align 8
  %10 = load i8, ptr %1, align 1
  %.not28 = icmp eq i8 %10, 0
  br i1 %.not28, label %.loopexit, label %.lr.ph

.lr.ph:                                           ; preds = %9
  %11 = getelementptr inbounds nuw i8, ptr %0, i64 80
  %12 = getelementptr inbounds nuw i8, ptr %3, i64 8
  br label %13

13:                                               ; preds = %.lr.ph, %bsearch.exit.thread
  %.01029 = phi i32 [ 0, %.lr.ph ], [ %.1, %bsearch.exit.thread ]
  call fastcc void @getNextFlagFromString(ptr noundef %0, ptr noundef %5, ptr noundef %4)
  call fastcc void @setCompoundAffixFlagValue(ptr noundef %0, ptr noundef nonnull %3, ptr noundef %4, i32 noundef 0)
  %14 = load ptr, ptr %11, align 8
  %15 = load i32, ptr %6, align 8
  %.not24.i = icmp eq i32 %15, 0
  br i1 %.not24.i, label %bsearch.exit.thread, label %.lr.ph.i.preheader

.lr.ph.i.preheader:                               ; preds = %13
  %16 = sext i32 %15 to i64
  %17 = load i32, ptr %12, align 8
  %18 = icmp eq i32 %17, 2
  %19 = load ptr, ptr %3, align 8
  %20 = ptrtoint ptr %19 to i64
  %21 = trunc i64 %20 to i32
  br i1 %18, label %.lr.ph.i.us, label %.lr.ph.i

.lr.ph.i.us:                                      ; preds = %.lr.ph.i.preheader, %cmpcmdflag.exit.thread16.us
  %.01621.i.us = phi i64 [ %spec.select30, %cmpcmdflag.exit.thread16.us ], [ 0, %.lr.ph.i.preheader ]
  %.01720.i.us = phi i64 [ %spec.select, %cmpcmdflag.exit.thread16.us ], [ %16, %.lr.ph.i.preheader ]
  %22 = add i64 %.01720.i.us, %.01621.i.us
  %23 = lshr i64 %22, 1
  %24 = shl i64 %23, 4
  %25 = getelementptr inbounds nuw i8, ptr %14, i64 %24
  %26 = load i32, ptr %25, align 8
  %27 = icmp eq i32 %26, %21
  br i1 %27, label %bsearch.exit, label %cmpcmdflag.exit.thread16.us

cmpcmdflag.exit.thread16.us:                      ; preds = %.lr.ph.i.us
  %28 = icmp ult i32 %26, %21
  %29 = add nuw i64 %23, 1
  %spec.select = select i1 %28, i64 %.01720.i.us, i64 %23
  %spec.select30 = select i1 %28, i64 %29, i64 %.01621.i.us
  %30 = icmp ult i64 %spec.select30, %spec.select
  br i1 %30, label %.lr.ph.i.us, label %bsearch.exit.thread, !llvm.loop !60

.lr.ph.i:                                         ; preds = %.lr.ph.i.preheader, %cmpcmdflag.exit.thread16
  %.01621.i = phi i64 [ %.1.i, %cmpcmdflag.exit.thread16 ], [ 0, %.lr.ph.i.preheader ]
  %.01720.i = phi i64 [ %.118.i, %cmpcmdflag.exit.thread16 ], [ %16, %.lr.ph.i.preheader ]
  %31 = add i64 %.01720.i, %.01621.i
  %32 = lshr i64 %31, 1
  %33 = shl i64 %32, 4
  %34 = getelementptr inbounds nuw i8, ptr %14, i64 %33
  %35 = load ptr, ptr %34, align 8
  %36 = call i32 @strcmp(ptr noundef nonnull dereferenceable(1) %19, ptr noundef nonnull dereferenceable(1) %35) #17
  %37 = icmp slt i32 %36, 0
  br i1 %37, label %cmpcmdflag.exit.thread16, label %cmpcmdflag.exit.thread

cmpcmdflag.exit.thread:                           ; preds = %.lr.ph.i
  %.not.i = icmp eq i32 %36, 0
  br i1 %.not.i, label %bsearch.exit, label %cmpcmdflag.exit.thread.thread22

cmpcmdflag.exit.thread.thread22:                  ; preds = %cmpcmdflag.exit.thread
  %38 = add nuw i64 %32, 1
  br label %cmpcmdflag.exit.thread16

cmpcmdflag.exit.thread16:                         ; preds = %cmpcmdflag.exit.thread.thread22, %.lr.ph.i
  %.118.i = phi i64 [ %.01720.i, %cmpcmdflag.exit.thread.thread22 ], [ %32, %.lr.ph.i ]
  %.1.i = phi i64 [ %38, %cmpcmdflag.exit.thread.thread22 ], [ %.01621.i, %.lr.ph.i ]
  %39 = icmp ult i64 %.1.i, %.118.i
  br i1 %39, label %.lr.ph.i, label %bsearch.exit.thread, !llvm.loop !60

bsearch.exit:                                     ; preds = %cmpcmdflag.exit.thread, %.lr.ph.i.us
  %.pn = phi i64 [ %24, %.lr.ph.i.us ], [ %33, %cmpcmdflag.exit.thread ]
  %.us-phi = getelementptr inbounds nuw i8, ptr %14, i64 %.pn
  %40 = getelementptr inbounds nuw i8, ptr %.us-phi, i64 12
  %41 = load i32, ptr %40, align 4
  %42 = or i32 %41, %.01029
  br label %bsearch.exit.thread

bsearch.exit.thread:                              ; preds = %cmpcmdflag.exit.thread16, %cmpcmdflag.exit.thread16.us, %13, %bsearch.exit
  %.1 = phi i32 [ %42, %bsearch.exit ], [ %.01029, %13 ], [ %.01029, %cmpcmdflag.exit.thread16.us ], [ %.01029, %cmpcmdflag.exit.thread16 ]
  %43 = load ptr, ptr %5, align 8
  %44 = load i8, ptr %43, align 1
  %.not = icmp eq i8 %44, 0
  br i1 %.not, label %.loopexit, label %13, !llvm.loop !61

.loopexit:                                        ; preds = %bsearch.exit.thread, %9, %2
  %.0 = phi i32 [ 0, %2 ], [ 0, %9 ], [ %.1, %bsearch.exit.thread ]
  call void @llvm.lifetime.end.p0(i64 8, ptr nonnull %5) #14
  call void @llvm.lifetime.end.p0(i64 8192, ptr nonnull %4) #14
  call void @llvm.lifetime.end.p0(i64 16, ptr nonnull %3) #14
  ret i32 %.0
}